target datalayout = "e-m:e-p270:32:32-p271:32:32-p272:64:64-i64:64-i128:128-f80:128-n8:16:32:64-S128"
target triple = "x86_64-pc-linux-gnu"

%"class.std::__cxx11::basic_string" = type { %"struct.std::__cxx11::basic_string<char>::_Alloc_hider", i64, %union.anon }
%"struct.std::__cxx11::basic_string<char>::_Alloc_hider" = type { ptr }
%union.anon = type { i64, [8 x i8] }
%"class.testing::internal::Mutex" = type { %"class.testing::internal::MutexBase" }
%"class.testing::internal::MutexBase" = type { %union.pthread_mutex_t, i8, i64 }
%union.pthread_mutex_t = type { %struct.__pthread_mutex_s }
%struct.__pthread_mutex_s = type { i32, i32, i32, i32, i32, i16, i16, %struct.__pthread_internal_list }
%struct.__pthread_internal_list = type { ptr, ptr }
%"class.std::vector.26" = type { %"struct.std::_Vector_base.27" }
%"struct.std::_Vector_base.27" = type { %"struct.std::_Vector_base<int, std::allocator<int>>::_Vector_impl" }
%"struct.std::_Vector_base<int, std::allocator<int>>::_Vector_impl" = type { %"struct.std::_Vector_base<int, std::allocator<int>>::_Vector_impl_data" }
%"struct.std::_Vector_base<int, std::allocator<int>>::_Vector_impl_data" = type { ptr, ptr, ptr }
%"class.testing::TestResult" = type { %"class.testing::internal::Mutex", %"class.std::vector.43", %"class.std::vector.48", i32, i64, i64 }
%"class.std::vector.43" = type { %"struct.std::_Vector_base.44" }
%"struct.std::_Vector_base.44" = type { %"struct.std::_Vector_base<testing::TestPartResult, std::allocator<testing::TestPartResult>>::_Vector_impl" }
%"struct.std::_Vector_base<testing::TestPartResult, std::allocator<testing::TestPartResult>>::_Vector_impl" = type { %"struct.std::_Vector_base<testing::TestPartResult, std::allocator<testing::TestPartResult>>::_Vector_impl_data" }
%"struct.std::_Vector_base<testing::TestPartResult, std::allocator<testing::TestPartResult>>::_Vector_impl_data" = type { ptr, ptr, ptr }
%"class.std::vector.48" = type { %"struct.std::_Vector_base.49" }
%"struct.std::_Vector_base.49" = type { %"struct.std::_Vector_base<testing::TestProperty, std::allocator<testing::TestProperty>>::_Vector_impl" }
%"struct.std::_Vector_base<testing::TestProperty, std::allocator<testing::TestProperty>>::_Vector_impl" = type { %"struct.std::_Vector_base<testing::TestProperty, std::allocator<testing::TestProperty>>::_Vector_impl_data" }
%"struct.std::_Vector_base<testing::TestProperty, std::allocator<testing::TestProperty>>::_Vector_impl_data" = type { ptr, ptr, ptr }
%"class.std::unique_ptr.78" = type { %"struct.std::__uniq_ptr_data.79" }
%"struct.std::__uniq_ptr_data.79" = type { %"class.std::__uniq_ptr_impl.80" }
%"class.std::__uniq_ptr_impl.80" = type { %"class.std::tuple.81" }
%"class.std::tuple.81" = type { %"struct.std::_Tuple_impl.82" }
%"struct.std::_Tuple_impl.82" = type { %"struct.std::_Head_base.85" }
%"struct.std::_Head_base.85" = type { ptr }
%"class.testing::TestSuite" = type { ptr, %"class.std::__cxx11::basic_string", %"class.std::unique_ptr.78", %"class.std::vector.185", %"class.std::vector.26", ptr, ptr, i8, i64, i64, %"class.testing::TestResult" }
%"class.std::vector.185" = type { %"struct.std::_Vector_base.186" }
%"struct.std::_Vector_base.186" = type { %"struct.std::_Vector_base<testing::TestInfo *, std::allocator<testing::TestInfo *>>::_Vector_impl" }
%"struct.std::_Vector_base<testing::TestInfo *, std::allocator<testing::TestInfo *>>::_Vector_impl" = type { %"struct.std::_Vector_base<testing::TestInfo *, std::allocator<testing::TestInfo *>>::_Vector_impl_data" }
%"struct.std::_Vector_base<testing::TestInfo *, std::allocator<testing::TestInfo *>>::_Vector_impl_data" = type { ptr, ptr, ptr }
%"class.__gnu_cxx::__normal_iterator.304" = type { ptr }

; Function Attrs: mustprogress nounwind uwtable
define linkonce_odr noundef nonnull align 8 dereferenceable(8) ptr @_ZNK9__gnu_cxx17__normal_iteratorIPKPN7testing8TestInfoESt6vectorIS3_SaIS3_EEE4baseEv(ptr noundef nonnull align 8 dereferenceable(8) %0) #5 comdat align 2 {
  %2 = alloca ptr, align 8
  store ptr %0, ptr %2, align 8, !tbaa !1815
  %3 = load ptr, ptr %2, align 8
  %4 = getelementptr inbounds nuw %"class.__gnu_cxx::__normal_iterator.304", ptr %3, i32 0, i32 0
  ret ptr %4
}

; Function Attrs: mustprogress nounwind uwtable
define linkonce_odr void @_ZN9__gnu_cxx17__normal_iteratorIPKPN7testing8TestInfoESt6vectorIS3_SaIS3_EEEC2ERKS5_(ptr noundef nonnull align 8 dereferenceable(8) %0, ptr noundef nonnull align 8 dereferenceable(8) %1) unnamed_addr #5 comdat align 2 {
  %3 = alloca ptr, align 8
  %4 = alloca ptr, align 8
  store ptr %0, ptr %3, align 8, !tbaa !1815
  store ptr %1, ptr %4, align 8, !tbaa !1819
  %5 = load ptr, ptr %3, align 8
  %6 = getelementptr inbounds nuw %"class.__gnu_cxx::__normal_iterator.304", ptr %5, i32 0, i32 0
  %7 = load ptr, ptr %4, align 8, !tbaa !1819
  %8 = load ptr, ptr %7, align 8, !tbaa !718
  store ptr %8, ptr %6, align 8, !tbaa !1817
  ret void
}

; Function Attrs: mustprogress nounwind uwtable
define linkonce_odr noundef nonnull align 8 dereferenceable(8) ptr @_ZN9__gnu_cxx17__normal_iteratorIPKPN7testing8TestInfoESt6vectorIS3_SaIS3_EEEppEv(ptr noundef nonnull align 8 dereferenceable(8) %0) #5 comdat align 2 {
  %2 = alloca ptr, align 8
  store ptr %0, ptr %2, align 8, !tbaa !1815
  %3 = load ptr, ptr %2, align 8
  %4 = getelementptr inbounds nuw %"class.__gnu_cxx::__normal_iterator.304", ptr %3, i32 0, i32 0
  %5 = load ptr, ptr %4, align 8, !tbaa !1817
  %6 = getelementptr inbounds nuw ptr, ptr %5, i32 1
  store ptr %6, ptr %4, align 8, !tbaa !1817
  ret ptr %3
}

; Function Attrs: mustprogress nounwind uwtable
define linkonce_odr noundef nonnull align 8 dereferenceable(8) ptr @_ZNK9__gnu_cxx17__normal_iteratorIPKPN7testing8TestInfoESt6vectorIS3_SaIS3_EEEdeEv(ptr noundef nonnull align 8 dereferenceable(8) %0) #5 comdat align 2 {
  %2 = alloca ptr, align 8
  store ptr %0, ptr %2, align 8, !tbaa !1815
  %3 = load ptr, ptr %2, align 8
  %4 = getelementptr inbounds nuw %"class.__gnu_cxx::__normal_iterator.304", ptr %3, i32 0, i32 0
  %5 = load ptr, ptr %4, align 8, !tbaa !1817
  ret ptr %5
}

; Function Attrs: inlinehint mustprogress nounwind uwtable
define linkonce_odr noundef zeroext i1 @_ZN9__gnu_cxxneIPKPN7testing8TestInfoESt6vectorIS3_SaIS3_EEEEbRKNS_17__normal_iteratorIT_T0_EESE_(ptr noundef nonnull align 8 dereferenceable(8) %0, ptr noundef nonnull align 8 dereferenceable(8) %1) #8 comdat {
  %3 = alloca ptr, align 8
  %4 = alloca ptr, align 8
  store ptr %0, ptr %3, align 8, !tbaa !1815
  store ptr %1, ptr %4, align 8, !tbaa !1815
  %5 = load ptr, ptr %3, align 8, !tbaa !1815
  %6 = call noundef nonnull align 8 dereferenceable(8) ptr @_ZNK9__gnu_cxx17__normal_iteratorIPKPN7testing8TestInfoESt6vectorIS3_SaIS3_EEE4baseEv(ptr noundef nonnull align 8 dereferenceable(8) %5) #3
  %7 = load ptr, ptr %6, align 8, !tbaa !718
  %8 = load ptr, ptr %4, align 8, !tbaa !1815
  %9 = call noundef nonnull align 8 dereferenceable(8) ptr @_ZNK9__gnu_cxx17__normal_iteratorIPKPN7testing8TestInfoESt6vectorIS3_SaIS3_EEE4baseEv(ptr noundef nonnull align 8 dereferenceable(8) %8) #3
  %10 = load ptr, ptr %9, align 8, !tbaa !718
  %11 = icmp ne ptr %7, %10
  ret i1 %11
}

; Function Attrs: mustprogress nounwind uwtable
define linkonce_odr ptr @_ZNKSt6vectorIPN7testing8TestInfoESaIS2_EE3endEv(ptr noundef nonnull align 8 dereferenceable(24) %0) #5 comdat align 2 {
  %2 = alloca %"class.__gnu_cxx::__normal_iterator.304", align 8
  %3 = alloca ptr, align 8
  store ptr %0, ptr %3, align 8, !tbaa !672
  %4 = load ptr, ptr %3, align 8
  %5 = getelementptr inbounds nuw %"struct.std::_Vector_base.186", ptr %4, i32 0, i32 0
  %6 = getelementptr inbounds nuw %"struct.std::_Vector_base<testing::TestInfo *, std::allocator<testing::TestInfo *>>::_Vector_impl_data", ptr %5, i32 0, i32 1
  call void @_ZN9__gnu_cxx17__normal_iteratorIPKPN7testing8TestInfoESt6vectorIS3_SaIS3_EEEC2ERKS5_(ptr noundef nonnull align 8 dereferenceable(8) %2, ptr noundef nonnull align 8 dereferenceable(8) %6) #3
  %7 = getelementptr inbounds nuw %"class.__gnu_cxx::__normal_iterator.304", ptr %2, i32 0, i32 0
  %8 = load ptr, ptr %7, align 8
  ret ptr %8
}

; Function Attrs: mustprogress nounwind uwtable
define linkonce_odr ptr @_ZNKSt6vectorIPN7testing8TestInfoESaIS2_EE5beginEv(ptr noundef nonnull align 8 dereferenceable(24) %0) #5 comdat align 2 {
  %2 = alloca %"class.__gnu_cxx::__normal_iterator.304", align 8
  %3 = alloca ptr, align 8
  store ptr %0, ptr %3, align 8, !tbaa !672
  %4 = load ptr, ptr %3, align 8
  %5 = getelementptr inbounds nuw %"struct.std::_Vector_base.186", ptr %4, i32 0, i32 0
  %6 = getelementptr inbounds nuw %"struct.std::_Vector_base<testing::TestInfo *, std::allocator<testing::TestInfo *>>::_Vector_impl_data", ptr %5, i32 0, i32 0
  call void @_ZN9__gnu_cxx17__normal_iteratorIPKPN7testing8TestInfoESt6vectorIS3_SaIS3_EEEC2ERKS5_(ptr noundef nonnull align 8 dereferenceable(8) %2, ptr noundef nonnull align 8 dereferenceable(8) %6) #3
  %7 = getelementptr inbounds nuw %"class.__gnu_cxx::__normal_iterator.304", ptr %2, i32 0, i32 0
  %8 = load ptr, ptr %7, align 8
  ret ptr %8
}

; Function Attrs: inlinehint mustprogress uwtable
define linkonce_odr noundef i32 @_ZN7testing8internal7CountIfISt6vectorIPNS_8TestInfoESaIS4_EEPFbPKS3_EEEiRKT_T0_(ptr noundef nonnull align 8 dereferenceable(24) %0, ptr noundef %1) #11 comdat {
  %3 = alloca ptr, align 8
  %4 = alloca ptr, align 8
  %5 = alloca i32, align 4
  %6 = alloca %"class.__gnu_cxx::__normal_iterator.304", align 8
  %7 = alloca %"class.__gnu_cxx::__normal_iterator.304", align 8
  store ptr %0, ptr %3, align 8, !tbaa !672
  store ptr %1, ptr %4, align 8, !tbaa !26
  call void @llvm.lifetime.start.p0(i64 4, ptr %5) #3
  store i32 0, ptr %5, align 4, !tbaa !37
  call void @llvm.lifetime.start.p0(i64 8, ptr %6) #3
  %8 = load ptr, ptr %3, align 8, !tbaa !672
  %9 = call ptr @_ZNKSt6vectorIPN7testing8TestInfoESaIS2_EE5beginEv(ptr noundef nonnull align 8 dereferenceable(24) %8) #3
  %10 = getelementptr inbounds nuw %"class.__gnu_cxx::__normal_iterator.304", ptr %6, i32 0, i32 0
  store ptr %9, ptr %10, align 8
  br label %11

11:                                               ; preds = %26, %2
  call void @llvm.lifetime.start.p0(i64 8, ptr %7) #3
  %12 = load ptr, ptr %3, align 8, !tbaa !672
  %13 = call ptr @_ZNKSt6vectorIPN7testing8TestInfoESaIS2_EE3endEv(ptr noundef nonnull align 8 dereferenceable(24) %12) #3
  %14 = getelementptr inbounds nuw %"class.__gnu_cxx::__normal_iterator.304", ptr %7, i32 0, i32 0
  store ptr %13, ptr %14, align 8
  %15 = call noundef zeroext i1 @_ZN9__gnu_cxxneIPKPN7testing8TestInfoESt6vectorIS3_SaIS3_EEEEbRKNS_17__normal_iteratorIT_T0_EESE_(ptr noundef nonnull align 8 dereferenceable(8) %6, ptr noundef nonnull align 8 dereferenceable(8) %7) #3
  call void @llvm.lifetime.end.p0(i64 8, ptr %7) #3
  br i1 %15, label %17, label %16

16:                                               ; preds = %11
  call void @llvm.lifetime.end.p0(i64 8, ptr %6) #3
  br label %28

17:                                               ; preds = %11
  %18 = load ptr, ptr %4, align 8, !tbaa !26
  %19 = call noundef nonnull align 8 dereferenceable(8) ptr @_ZNK9__gnu_cxx17__normal_iteratorIPKPN7testing8TestInfoESt6vectorIS3_SaIS3_EEEdeEv(ptr noundef nonnull align 8 dereferenceable(8) %6) #3
  %20 = load ptr, ptr %19, align 8, !tbaa !49
  %21 = call noundef zeroext i1 %18(ptr noundef %20)
  br i1 %21, label %22, label %25

22:                                               ; preds = %17
  %23 = load i32, ptr %5, align 4, !tbaa !37
  %24 = add nsw i32 %23, 1
  store i32 %24, ptr %5, align 4, !tbaa !37
  br label %25

25:                                               ; preds = %22, %17
  br label %26

26:                                               ; preds = %25
  %27 = call noundef nonnull align 8 dereferenceable(8) ptr @_ZN9__gnu_cxx17__normal_iteratorIPKPN7testing8TestInfoESt6vectorIS3_SaIS3_EEEppEv(ptr noundef nonnull align 8 dereferenceable(8) %6) #3
  br label %11, !llvm.loop !703

28:                                               ; preds = %16
  %29 = load i32, ptr %5, align 4, !tbaa !37
  call void @llvm.lifetime.end.p0(i64 4, ptr %5) #3
  ret i32 %29
}

; Function Attrs: mustprogress uwtable
define noundef i32 @_ZNK7testing9TestSuite21reportable_test_countEv(ptr noundef nonnull align 8 dereferenceable(264) %0) #4 align 2 {
  %2 = alloca ptr, align 8
  store ptr %0, ptr %2, align 8, !tbaa !507
  %3 = load ptr, ptr %2, align 8
  %4 = getelementptr inbounds nuw %"class.testing::TestSuite", ptr %3, i32 0, i32 3
  %5 = call noundef i32 @_ZN7testing8internal7CountIfISt6vectorIPNS_8TestInfoESaIS4_EEPFbPKS3_EEEiRKT_T0_(ptr noundef nonnull align 8 dereferenceable(24) %4, ptr noundef @_ZN7testing9TestSuite14TestReportableEPKNS_8TestInfoE)
  ret i32 %5
}